target datalayout = "e-m:e-p270:32:32-p271:32:32-p272:64:64-i64:64-i128:128-f80:128-n8:16:32:64-S128"
target triple = "x86_64-pc-linux-gnu"

%struct.ScanKeyData = type { i32, i16, i16, i32, i32, %struct.FmgrInfo, i64 }
%struct.FmgrInfo = type { ptr, i32, i16, i8, i8, i8, ptr, ptr, ptr }
%struct.HeapTupleData = type { i32, %struct.ItemPointerData, i32, ptr }
%struct.ItemPointerData = type { %struct.BlockIdData, i16 }
%struct.BlockIdData = type { i16, i16 }

; Function Attrs: inlinehint nounwind uwtable
define internal i64 @ObjectIdGetDatum(i32 noundef %0) #4 {
  %2 = alloca i32, align 4
  store i32 %0, ptr %2, align 4
  %3 = load i32, ptr %2, align 4
  %4 = zext i32 %3 to i64
  ret i64 %4
}

; Function Attrs: nounwind uwtable
define dso_local void @DeleteSharedSecurityLabel(i32 noundef %0, i32 noundef %1) #0 {
  %3 = alloca i32, align 4
  %4 = alloca i32, align 4
  %5 = alloca ptr, align 8
  %6 = alloca [2 x %struct.ScanKeyData], align 16
  %7 = alloca ptr, align 8
  %8 = alloca ptr, align 8
  store i32 %0, ptr %3, align 4
  store i32 %1, ptr %4, align 4
  call void @llvm.lifetime.start.p0(i64 8, ptr %5) #8
  call void @llvm.lifetime.start.p0(i64 144, ptr %6) #8
  call void @llvm.lifetime.start.p0(i64 8, ptr %7) #8
  call void @llvm.lifetime.start.p0(i64 8, ptr %8) #8
  %9 = getelementptr inbounds [2 x %struct.ScanKeyData], ptr %6, i64 0, i64 0
  %10 = load i32, ptr %3, align 4
  %11 = call i64 @ObjectIdGetDatum(i32 noundef %10)
  call void @ScanKeyInit(ptr noundef %9, i16 noundef signext 1, i16 noundef zeroext 3, i32 noundef 184, i64 noundef %11)
  %12 = getelementptr inbounds [2 x %struct.ScanKeyData], ptr %6, i64 0, i64 1
  %13 = load i32, ptr %4, align 4
  %14 = call i64 @ObjectIdGetDatum(i32 noundef %13)
  call void @ScanKeyInit(ptr noundef %12, i16 noundef signext 2, i16 noundef zeroext 3, i32 noundef 184, i64 noundef %14)
  %15 = call ptr @table_open(i32 noundef 3592, i32 noundef 3)
  store ptr %15, ptr %5, align 8
  %16 = load ptr, ptr %5, align 8
  %17 = getelementptr inbounds [2 x %struct.ScanKeyData], ptr %6, i64 0, i64 0
  %18 = call ptr @systable_beginscan(ptr noundef %16, i32 noundef 3593, i1 noundef zeroext true, ptr noundef null, i32 noundef 2, ptr noundef %17)
  store ptr %18, ptr %7, align 8
  br label %19

19:                                               ; preds = %23, %2
  %20 = load ptr, ptr %7, align 8
  %21 = call ptr @systable_getnext(ptr noundef %20)
  store ptr %21, ptr %8, align 8
  %22 = icmp ne ptr %21, null
  br i1 %22, label %23, label %27

23:                                               ; preds = %19
  %24 = load ptr, ptr %5, align 8
  %25 = load ptr, ptr %8, align 8
  %26 = getelementptr inbounds nuw %struct.HeapTupleData, ptr %25, i32 0, i32 1
  call void @CatalogTupleDelete(ptr noundef %24, ptr noundef %26)
  br label %19, !llvm.loop !8

27:                                               ; preds = %19
  %28 = load ptr, ptr %7, align 8
  call void @systable_endscan(ptr noundef %28)
  %29 = load ptr, ptr %5, align 8
  call void @table_close(ptr noundef %29, i32 noundef 3)
  call void @llvm.lifetime.end.p0(i64 8, ptr %8) #8
  call void @llvm.lifetime.end.p0(i64 8, ptr %7) #8
  call void @llvm.lifetime.end.p0(i64 144, ptr %6) #8
  call void @llvm.lifetime.end.p0(i64 8, ptr %5) #8
  ret void
}